target datalayout = "e-m:e-p270:32:32-p271:32:32-p272:64:64-i64:64-i128:128-f80:128-n8:16:32:64-S128"
target triple = "x86_64-pc-linux-gnu"

%struct.jv = type { i8, i8, i16, i32, %union.anon }
%union.anon = type { ptr }
%struct.jq_state = type { ptr, ptr, ptr, ptr, ptr, %struct.jv, %struct.stack, i32, i32, i32, %struct.jv, %struct.jv, i32, i32, i32, i32, i32, %struct.jv, %struct.jv, %struct.jv, ptr, ptr, ptr, ptr, ptr, ptr }
%struct.stack = type { ptr, i32, i32 }

@stderr = external global ptr, align 8

; Function Attrs: nounwind uwtable
define internal void @stack_init(ptr noundef %0) #0 {
  %2 = alloca ptr, align 8
  store ptr %0, ptr %2, align 8, !tbaa !22
  %3 = load ptr, ptr %2, align 8, !tbaa !22
  %4 = getelementptr inbounds nuw %struct.stack, ptr %3, i32 0, i32 0
  store ptr null, ptr %4, align 8, !tbaa !28
  %5 = load ptr, ptr %2, align 8, !tbaa !22
  %6 = getelementptr inbounds nuw %struct.stack, ptr %5, i32 0, i32 1
  store i32 8, ptr %6, align 8, !tbaa !27
  %7 = load ptr, ptr %2, align 8, !tbaa !22
  %8 = getelementptr inbounds nuw %struct.stack, ptr %7, i32 0, i32 2
  store i32 0, ptr %8, align 4, !tbaa !26
  ret void
}

; Function Attrs: nounwind uwtable
define dso_local ptr @jq_init() #0 {
  %1 = alloca ptr, align 8
  %2 = alloca ptr, align 8
  %3 = alloca i32, align 4
  %4 = alloca %struct.jv, align 8
  %5 = alloca %struct.jv, align 8
  %6 = alloca %struct.jv, align 8
  %7 = alloca %struct.jv, align 8
  %8 = alloca %struct.jv, align 8
  %9 = alloca %struct.jv, align 8
  call void @llvm.lifetime.start.p0(i64 8, ptr %2) #7
  %10 = call ptr @jv_mem_alloc_unguarded(i64 noundef 240)
  store ptr %10, ptr %2, align 8, !tbaa !4
  %11 = load ptr, ptr %2, align 8, !tbaa !4
  %12 = icmp eq ptr %11, null
  br i1 %12, label %13, label %14

13:                                               ; preds = %0
  store ptr null, ptr %1, align 8
  store i32 1, ptr %3, align 4
  br label %93

14:                                               ; preds = %0
  %15 = load ptr, ptr %2, align 8, !tbaa !4
  %16 = getelementptr inbounds nuw %struct.jq_state, ptr %15, i32 0, i32 2
  store ptr null, ptr %16, align 8, !tbaa !90
  %17 = load ptr, ptr %2, align 8, !tbaa !4
  %18 = getelementptr inbounds nuw %struct.jq_state, ptr %17, i32 0, i32 15
  store i32 0, ptr %18, align 4, !tbaa !68
  %19 = load ptr, ptr %2, align 8, !tbaa !4
  %20 = getelementptr inbounds nuw %struct.jq_state, ptr %19, i32 0, i32 6
  call void @stack_init(ptr noundef %20)
  %21 = load ptr, ptr %2, align 8, !tbaa !4
  %22 = getelementptr inbounds nuw %struct.jq_state, ptr %21, i32 0, i32 8
  store i32 0, ptr %22, align 4, !tbaa !9
  %23 = load ptr, ptr %2, align 8, !tbaa !4
  %24 = getelementptr inbounds nuw %struct.jq_state, ptr %23, i32 0, i32 9
  store i32 0, ptr %24, align 8, !tbaa !35
  %25 = load ptr, ptr %2, align 8, !tbaa !4
  %26 = getelementptr inbounds nuw %struct.jq_state, ptr %25, i32 0, i32 7
  store i32 0, ptr %26, align 8, !tbaa !31
  %27 = load ptr, ptr %2, align 8, !tbaa !4
  %28 = getelementptr inbounds nuw %struct.jq_state, ptr %27, i32 0, i32 5
  call void @llvm.lifetime.start.p0(i64 16, ptr %4) #7
  %29 = call { i64, ptr } @jv_null()
  %30 = getelementptr inbounds nuw { i64, ptr }, ptr %4, i32 0, i32 0
  %31 = extractvalue { i64, ptr } %29, 0
  store i64 %31, ptr %30, align 8
  %32 = getelementptr inbounds nuw { i64, ptr }, ptr %4, i32 0, i32 1
  %33 = extractvalue { i64, ptr } %29, 1
  store ptr %33, ptr %32, align 8
  call void @llvm.memcpy.p0.p0.i64(ptr align 8 %28, ptr align 8 %4, i64 16, i1 false), !tbaa.struct !18
  call void @llvm.lifetime.end.p0(i64 16, ptr %4) #7
  %34 = load ptr, ptr %2, align 8, !tbaa !4
  %35 = getelementptr inbounds nuw %struct.jq_state, ptr %34, i32 0, i32 16
  store i32 0, ptr %35, align 8, !tbaa !60
  %36 = load ptr, ptr %2, align 8, !tbaa !4
  %37 = getelementptr inbounds nuw %struct.jq_state, ptr %36, i32 0, i32 17
  call void @llvm.lifetime.start.p0(i64 16, ptr %5) #7
  %38 = call { i64, ptr } @jv_invalid()
  %39 = getelementptr inbounds nuw { i64, ptr }, ptr %5, i32 0, i32 0
  %40 = extractvalue { i64, ptr } %38, 0
  store i64 %40, ptr %39, align 8
  %41 = getelementptr inbounds nuw { i64, ptr }, ptr %5, i32 0, i32 1
  %42 = extractvalue { i64, ptr } %38, 1
  store ptr %42, ptr %41, align 8
  call void @llvm.memcpy.p0.p0.i64(ptr align 8 %37, ptr align 8 %5, i64 16, i1 false), !tbaa.struct !18
  call void @llvm.lifetime.end.p0(i64 16, ptr %5) #7
  %43 = load ptr, ptr %2, align 8, !tbaa !4
  %44 = getelementptr inbounds nuw %struct.jq_state, ptr %43, i32 0, i32 18
  call void @llvm.lifetime.start.p0(i64 16, ptr %6) #7
  %45 = call { i64, ptr } @jv_invalid()
  %46 = getelementptr inbounds nuw { i64, ptr }, ptr %6, i32 0, i32 0
  %47 = extractvalue { i64, ptr } %45, 0
  store i64 %47, ptr %46, align 8
  %48 = getelementptr inbounds nuw { i64, ptr }, ptr %6, i32 0, i32 1
  %49 = extractvalue { i64, ptr } %45, 1
  store ptr %49, ptr %48, align 8
  call void @llvm.memcpy.p0.p0.i64(ptr align 8 %44, ptr align 8 %6, i64 16, i1 false), !tbaa.struct !18
  call void @llvm.lifetime.end.p0(i64 16, ptr %6) #7
  %50 = load ptr, ptr %2, align 8, !tbaa !4
  %51 = getelementptr inbounds nuw %struct.jq_state, ptr %50, i32 0, i32 20
  store ptr null, ptr %51, align 8, !tbaa !91
  %52 = load ptr, ptr %2, align 8, !tbaa !4
  %53 = getelementptr inbounds nuw %struct.jq_state, ptr %52, i32 0, i32 21
  store ptr null, ptr %53, align 8, !tbaa !92
  %54 = load ptr, ptr %2, align 8, !tbaa !4
  %55 = getelementptr inbounds nuw %struct.jq_state, ptr %54, i32 0, i32 22
  store ptr null, ptr %55, align 8, !tbaa !93
  %56 = load ptr, ptr %2, align 8, !tbaa !4
  %57 = getelementptr inbounds nuw %struct.jq_state, ptr %56, i32 0, i32 23
  store ptr null, ptr %57, align 8, !tbaa !94
  %58 = load ptr, ptr %2, align 8, !tbaa !4
  %59 = getelementptr inbounds nuw %struct.jq_state, ptr %58, i32 0, i32 24
  store ptr null, ptr %59, align 8, !tbaa !95
  %60 = load ptr, ptr %2, align 8, !tbaa !4
  %61 = getelementptr inbounds nuw %struct.jq_state, ptr %60, i32 0, i32 25
  store ptr null, ptr %61, align 8, !tbaa !96
  %62 = load ptr, ptr %2, align 8, !tbaa !4
  %63 = getelementptr inbounds nuw %struct.jq_state, ptr %62, i32 0, i32 3
  store ptr @default_err_cb, ptr %63, align 8, !tbaa !55
  %64 = load ptr, ptr @stderr, align 8, !tbaa !88
  %65 = load ptr, ptr %2, align 8, !tbaa !4
  %66 = getelementptr inbounds nuw %struct.jq_state, ptr %65, i32 0, i32 4
  store ptr %64, ptr %66, align 8, !tbaa !56
  %67 = load ptr, ptr %2, align 8, !tbaa !4
  %68 = getelementptr inbounds nuw %struct.jq_state, ptr %67, i32 0, i32 19
  call void @llvm.lifetime.start.p0(i64 16, ptr %7) #7
  %69 = call { i64, ptr } @jv_object()
  %70 = getelementptr inbounds nuw { i64, ptr }, ptr %7, i32 0, i32 0
  %71 = extractvalue { i64, ptr } %69, 0
  store i64 %71, ptr %70, align 8
  %72 = getelementptr inbounds nuw { i64, ptr }, ptr %7, i32 0, i32 1
  %73 = extractvalue { i64, ptr } %69, 1
  store ptr %73, ptr %72, align 8
  call void @llvm.memcpy.p0.p0.i64(ptr align 8 %68, ptr align 8 %7, i64 16, i1 false), !tbaa.struct !18
  call void @llvm.lifetime.end.p0(i64 16, ptr %7) #7
  %74 = load ptr, ptr %2, align 8, !tbaa !4
  %75 = getelementptr inbounds nuw %struct.jq_state, ptr %74, i32 0, i32 10
  call void @llvm.lifetime.start.p0(i64 16, ptr %8) #7
  %76 = call { i64, ptr } @jv_null()
  %77 = getelementptr inbounds nuw { i64, ptr }, ptr %8, i32 0, i32 0
  %78 = extractvalue { i64, ptr } %76, 0
  store i64 %78, ptr %77, align 8
  %79 = getelementptr inbounds nuw { i64, ptr }, ptr %8, i32 0, i32 1
  %80 = extractvalue { i64, ptr } %76, 1
  store ptr %80, ptr %79, align 8
  call void @llvm.memcpy.p0.p0.i64(ptr align 8 %75, ptr align 8 %8, i64 16, i1 false), !tbaa.struct !18
  call void @llvm.lifetime.end.p0(i64 16, ptr %8) #7
  %81 = load ptr, ptr %2, align 8, !tbaa !4
  %82 = getelementptr inbounds nuw %struct.jq_state, ptr %81, i32 0, i32 11
  call void @llvm.lifetime.start.p0(i64 16, ptr %9) #7
  %83 = call { i64, ptr } @jv_null()
  %84 = getelementptr inbounds nuw { i64, ptr }, ptr %9, i32 0, i32 0
  %85 = extractvalue { i64, ptr } %83, 0
  store i64 %85, ptr %84, align 8
  %86 = getelementptr inbounds nuw { i64, ptr }, ptr %9, i32 0, i32 1
  %87 = extractvalue { i64, ptr } %83, 1
  store ptr %87, ptr %86, align 8
  call void @llvm.memcpy.p0.p0.i64(ptr align 8 %82, ptr align 8 %9, i64 16, i1 false), !tbaa.struct !18
  call void @llvm.lifetime.end.p0(i64 16, ptr %9) #7
  %88 = load ptr, ptr %2, align 8, !tbaa !4
  %89 = getelementptr inbounds nuw %struct.jq_state, ptr %88, i32 0, i32 0
  store ptr null, ptr %89, align 8, !tbaa !57
  %90 = load ptr, ptr %2, align 8, !tbaa !4
  %91 = getelementptr inbounds nuw %struct.jq_state, ptr %90, i32 0, i32 1
  store ptr null, ptr %91, align 8, !tbaa !58
  %92 = load ptr, ptr %2, align 8, !tbaa !4
  store ptr %92, ptr %1, align 8
  store i32 1, ptr %3, align 4
  br label %93

93:                                               ; preds = %14, %13
  call void @llvm.lifetime.end.p0(i64 8, ptr %2) #7
  %94 = load ptr, ptr %1, align 8
  ret ptr %94
}