; Function Attrs: nounwind uwtable
define dso_local ptr @jq_init() local_unnamed_addr #0 {
  %1 = tail call ptr @jv_mem_alloc_unguarded(i64 noundef 240) #13
  %2 = icmp eq ptr %1, null
  br i1 %2, label %38, label %3

3:                                                ; preds = %0
  %4 = getelementptr inbounds nuw i8, ptr %1, i64 16
  store ptr null, ptr %4, align 8, !tbaa !68
  %5 = getelementptr inbounds nuw i8, ptr %1, i64 132
  store i32 0, ptr %5, align 4, !tbaa !52
  %6 = getelementptr inbounds nuw i8, ptr %1, i64 56
  store ptr null, ptr %6, align 8, !tbaa !17
  %7 = getelementptr inbounds nuw i8, ptr %1, i64 64
  store i32 8, ptr %7, align 8, !tbaa !16
  %8 = getelementptr inbounds nuw i8, ptr %1, i64 68
  %9 = getelementptr inbounds nuw i8, ptr %1, i64 40
  tail call void @llvm.memset.p0.i64(ptr noundef nonnull align 4 dereferenceable(16) %8, i8 0, i64 16, i1 false)
  %10 = tail call { i64, ptr } @jv_null() #13
  %11 = extractvalue { i64, ptr } %10, 0
  %12 = extractvalue { i64, ptr } %10, 1
  store i64 %11, ptr %9, align 8
  %.sroa.410.0..sroa_idx = getelementptr inbounds nuw i8, ptr %1, i64 48
  store ptr %12, ptr %.sroa.410.0..sroa_idx, align 8, !tbaa !19
  %13 = getelementptr inbounds nuw i8, ptr %1, i64 136
  store i32 0, ptr %13, align 8, !tbaa !46
  %14 = getelementptr inbounds nuw i8, ptr %1, i64 144
  %15 = tail call { i64, ptr } @jv_invalid() #13
  %16 = extractvalue { i64, ptr } %15, 0
  %17 = extractvalue { i64, ptr } %15, 1
  store i64 %16, ptr %14, align 8
  %.sroa.48.0..sroa_idx = getelementptr inbounds nuw i8, ptr %1, i64 152
  store ptr %17, ptr %.sroa.48.0..sroa_idx, align 8, !tbaa !19
  %18 = getelementptr inbounds nuw i8, ptr %1, i64 160
  %19 = tail call { i64, ptr } @jv_invalid() #13
  %20 = extractvalue { i64, ptr } %19, 0
  %21 = extractvalue { i64, ptr } %19, 1
  store i64 %20, ptr %18, align 8
  %.sroa.46.0..sroa_idx = getelementptr inbounds nuw i8, ptr %1, i64 168
  store ptr %21, ptr %.sroa.46.0..sroa_idx, align 8, !tbaa !19
  %22 = getelementptr inbounds nuw i8, ptr %1, i64 192
  %23 = getelementptr inbounds nuw i8, ptr %1, i64 24
  tail call void @llvm.memset.p0.i64(ptr noundef nonnull align 8 dereferenceable(48) %22, i8 0, i64 48, i1 false)
  store ptr @default_err_cb, ptr %23, align 8, !tbaa !41
  %24 = load ptr, ptr @stderr, align 8, !tbaa !66
  %25 = getelementptr inbounds nuw i8, ptr %1, i64 32
  store ptr %24, ptr %25, align 8, !tbaa !42
  %26 = getelementptr inbounds nuw i8, ptr %1, i64 176
  %27 = tail call { i64, ptr } @jv_object() #13
  %28 = extractvalue { i64, ptr } %27, 0
  %29 = extractvalue { i64, ptr } %27, 1
  store i64 %28, ptr %26, align 8
  %.sroa.44.0..sroa_idx = getelementptr inbounds nuw i8, ptr %1, i64 184
  store ptr %29, ptr %.sroa.44.0..sroa_idx, align 8, !tbaa !19
  %30 = getelementptr inbounds nuw i8, ptr %1, i64 88
  %31 = tail call { i64, ptr } @jv_null() #13
  %32 = extractvalue { i64, ptr } %31, 0
  %33 = extractvalue { i64, ptr } %31, 1
  store i64 %32, ptr %30, align 8
  %.sroa.42.0..sroa_idx = getelementptr inbounds nuw i8, ptr %1, i64 96
  store ptr %33, ptr %.sroa.42.0..sroa_idx, align 8, !tbaa !19
  %34 = getelementptr inbounds nuw i8, ptr %1, i64 104
  %35 = tail call { i64, ptr } @jv_null() #13
  %36 = extractvalue { i64, ptr } %35, 0
  %37 = extractvalue { i64, ptr } %35, 1
  store i64 %36, ptr %34, align 8
  %.sroa.4.0..sroa_idx = getelementptr inbounds nuw i8, ptr %1, i64 112
  store ptr %37, ptr %.sroa.4.0..sroa_idx, align 8, !tbaa !19
  tail call void @llvm.memset.p0.i64(ptr noundef nonnull align 8 dereferenceable(16) %1, i8 0, i64 16, i1 false)
  br label %38

38:                                               ; preds = %0, %3
  ret ptr %1
}